target datalayout = "e-m:e-p270:32:32-p271:32:32-p272:64:64-i64:64-i128:128-f80:128-n8:16:32:64-S128"
target triple = "x86_64-pc-linux-gnu"

@.str.9 = private unnamed_addr constant [11 x i8] c"scrontab.c\00", align 1
@_binary_default_crontab_txt_end = external global ptr, align 8
@_binary_default_crontab_txt_start = external global ptr, align 8
@__func__._edit_crontab = private unnamed_addr constant [14 x i8] c"_edit_crontab\00", align 1
@.str.30 = private unnamed_addr constant [19 x i8] c"%s/scrontab-XXXXXX\00", align 1
@.str.31 = private unnamed_addr constant [42 x i8] c"error creating temp crontab file '%s': %m\00", align 1
@.str.32 = private unnamed_addr constant [45 x i8] c"%s:%d: %s: safe_write (%zu of %d) failed: %m\00", align 1
@.str.33 = private unnamed_addr constant [48 x i8] c"%s:%d: %s: safe_write (%zu of %d) partial write\00", align 1
@.str.34 = private unnamed_addr constant [7 x i8] c"VISUAL\00", align 1
@.str.35 = private unnamed_addr constant [7 x i8] c"EDITOR\00", align 1
@.str.36 = private unnamed_addr constant [3 x i8] c"vi\00", align 1
@.str.37 = private unnamed_addr constant [12 x i8] c"cannot fork\00", align 1
@.str.38 = private unnamed_addr constant [35 x i8] c"editor returned non-zero exit code\00", align 1
@.str.39 = private unnamed_addr constant [43 x i8] c"error reopening temp crontab file '%s': %s\00", align 1
@.str.40 = private unnamed_addr constant [44 x i8] c"error writing to temp crontab file '%s': %s\00", align 1
@.str.41 = private unnamed_addr constant [7 x i8] c"TMPDIR\00", align 1
@.str.42 = private unnamed_addr constant [5 x i8] c"/tmp\00", align 1
@.str.43 = private unnamed_addr constant [17 x i8] c"%s: lseek(0): %m\00", align 1
@__func__._load_script_from_fd = private unnamed_addr constant [21 x i8] c"_load_script_from_fd\00", align 1

; Function Attrs: nounwind uwtable
define internal ptr @_load_script_from_fd(i32 noundef %0) #0 {
  %2 = alloca i32, align 4
  store i32 %0, ptr %2, align 4
  %3 = load i32, ptr %2, align 4
  %4 = call i64 @lseek(i32 noundef %3, i64 noundef 0, i32 noundef 0) #11
  %5 = icmp slt i64 %4, 0
  br i1 %5, label %6, label %7

6:                                                ; preds = %1
  call void (ptr, ...) @fatal(ptr noundef @.str.43, ptr noundef @__func__._load_script_from_fd) #12
  unreachable

7:                                                ; preds = %1
  %8 = load i32, ptr %2, align 4
  %9 = call ptr @_read_fd(i32 noundef %8)
  ret ptr %9
}

; Function Attrs: nounwind uwtable
define internal ptr @_tmp_path() #0 {
  %1 = alloca ptr, align 8
  call void @llvm.lifetime.start.p0(i64 8, ptr %1) #11
  %2 = call ptr @getenv(ptr noundef @.str.41) #11
  store ptr %2, ptr %1, align 8
  %3 = load ptr, ptr %1, align 8
  %4 = icmp ne ptr %3, null
  br i1 %4, label %5, label %7

5:                                                ; preds = %0
  %6 = load ptr, ptr %1, align 8
  br label %8

7:                                                ; preds = %0
  br label %8

8:                                                ; preds = %7, %5
  %9 = phi ptr [ %6, %5 ], [ @.str.42, %7 ]
  call void @llvm.lifetime.end.p0(i64 8, ptr %1) #11
  ret ptr %9
}

; Function Attrs: nounwind uwtable
define internal void @_edit_crontab(ptr noundef %0) #0 {
  %2 = alloca ptr, align 8
  %3 = alloca i32, align 4
  %4 = alloca i32, align 4
  %5 = alloca i32, align 4
  %6 = alloca i32, align 4
  %7 = alloca ptr, align 8
  %8 = alloca ptr, align 8
  %9 = alloca i64, align 8
  %10 = alloca ptr, align 8
  %11 = alloca i64, align 8
  %12 = alloca ptr, align 8
  %13 = alloca i32, align 4
  %14 = alloca i32, align 4
  %15 = alloca [3 x ptr], align 16
  store ptr %0, ptr %2, align 8
  call void @llvm.lifetime.start.p0(i64 4, ptr %3) #11
  call void @llvm.lifetime.start.p0(i64 4, ptr %4) #11
  call void @llvm.lifetime.start.p0(i64 4, ptr %5) #11
  call void @llvm.lifetime.start.p0(i64 4, ptr %6) #11
  call void @llvm.lifetime.start.p0(i64 8, ptr %7) #11
  call void @llvm.lifetime.start.p0(i64 8, ptr %8) #11
  store ptr null, ptr %8, align 8
  %16 = load ptr, ptr %2, align 8
  %17 = load ptr, ptr %16, align 8
  %18 = icmp ne ptr %17, null
  br i1 %18, label %33, label %19

19:                                               ; preds = %1
  br label %20

20:                                               ; preds = %19
  call void @llvm.lifetime.start.p0(i64 8, ptr %9) #11
  store i64 sub (i64 ptrtoint (ptr @_binary_default_crontab_txt_end to i64), i64 ptrtoint (ptr @_binary_default_crontab_txt_start to i64)), ptr %9, align 8
  call void @llvm.lifetime.start.p0(i64 8, ptr %10) #11
  %21 = load i64, ptr %9, align 8
  %22 = add i64 %21, 1
  %23 = call ptr @slurm_xcalloc(i64 noundef 1, i64 noundef %22, i1 noundef zeroext true, i1 noundef zeroext false, ptr noundef @.str.9, i32 noundef 262, ptr noundef @__func__._edit_crontab)
  store ptr %23, ptr %10, align 8
  %24 = load ptr, ptr %10, align 8
  %25 = load i64, ptr %9, align 8
  call void @llvm.memcpy.p0.p0.i64(ptr align 1 %24, ptr align 8 @_binary_default_crontab_txt_start, i64 %25, i1 false)
  %26 = load ptr, ptr %10, align 8
  %27 = load i64, ptr %9, align 8
  %28 = getelementptr inbounds nuw i8, ptr %26, i64 %27
  store i8 0, ptr %28, align 1
  %29 = load ptr, ptr %10, align 8
  %30 = load ptr, ptr %2, align 8
  store ptr %29, ptr %30, align 8
  call void @llvm.lifetime.end.p0(i64 8, ptr %10) #11
  call void @llvm.lifetime.end.p0(i64 8, ptr %9) #11
  br label %31

31:                                               ; preds = %20
  br label %32

32:                                               ; preds = %31
  br label %33

33:                                               ; preds = %32, %1
  %34 = call ptr @_tmp_path()
  call void (ptr, ptr, ...) @_xstrfmtcat(ptr noundef %8, ptr noundef @.str.30, ptr noundef %34)
  %35 = call i32 @umask(i32 noundef 63) #11
  %36 = load ptr, ptr %8, align 8
  %37 = call i32 @mkstemp(ptr noundef %36)
  store i32 %37, ptr %3, align 4
  %38 = load i32, ptr %3, align 4
  %39 = icmp slt i32 %38, 0
  br i1 %39, label %40, label %42

40:                                               ; preds = %33
  %41 = load ptr, ptr %8, align 8
  call void (ptr, ...) @fatal(ptr noundef @.str.31, ptr noundef %41) #12
  unreachable

42:                                               ; preds = %33
  br label %43

43:                                               ; preds = %42
  call void @llvm.lifetime.start.p0(i64 8, ptr %11) #11
  %44 = load ptr, ptr %2, align 8
  %45 = load ptr, ptr %44, align 8
  %46 = call i64 @strlen(ptr noundef %45) #14
  store i64 %46, ptr %11, align 8
  call void @llvm.lifetime.start.p0(i64 8, ptr %12) #11
  %47 = load ptr, ptr %2, align 8
  %48 = load ptr, ptr %47, align 8
  store ptr %48, ptr %12, align 8
  call void @llvm.lifetime.start.p0(i64 4, ptr %13) #11
  br label %49

49:                                               ; preds = %113, %68, %43
  %50 = load i64, ptr %11, align 8
  %51 = icmp ugt i64 %50, 0
  br i1 %51, label %52, label %114

52:                                               ; preds = %49
  %53 = load i32, ptr %3, align 4
  %54 = load ptr, ptr %12, align 8
  %55 = load i64, ptr %11, align 8
  %56 = call i64 @write(i32 noundef %53, ptr noundef %54, i64 noundef %55)
  %57 = trunc i64 %56 to i32
  store i32 %57, ptr %13, align 4
  %58 = load i32, ptr %13, align 4
  %59 = icmp slt i32 %58, 0
  br i1 %59, label %60, label %85

60:                                               ; preds = %52
  %61 = call ptr @__errno_location() #15
  %62 = load i32, ptr %61, align 4
  %63 = icmp eq i32 %62, 11
  br i1 %63, label %68, label %64

64:                                               ; preds = %60
  %65 = call ptr @__errno_location() #15
  %66 = load i32, ptr %65, align 4
  %67 = icmp eq i32 %66, 4
  br i1 %67, label %68, label %69

68:                                               ; preds = %64, %60
  br label %49, !llvm.loop !20

69:                                               ; preds = %64
  br label %70

70:                                               ; preds = %69
  br label %71

71:                                               ; preds = %70
  %72 = call i32 @get_log_level()
  %73 = icmp sge i32 %72, 5
  br i1 %73, label %74, label %80

74:                                               ; preds = %71
  %75 = load i64, ptr %11, align 8
  %76 = load ptr, ptr %2, align 8
  %77 = load ptr, ptr %76, align 8
  %78 = call i64 @strlen(ptr noundef %77) #14
  %79 = trunc i64 %78 to i32
  call void (i32, ptr, ...) @log_var(i32 noundef 5, ptr noundef @.str.32, ptr noundef @.str.9, i32 noundef 271, ptr noundef @__func__._edit_crontab, i64 noundef %75, i32 noundef %79)
  br label %80

80:                                               ; preds = %74, %71
  br label %81

81:                                               ; preds = %80
  br label %82

82:                                               ; preds = %81
  br label %83

83:                                               ; preds = %82
  br label %84

84:                                               ; preds = %83
  store i32 12, ptr %14, align 4
  br label %115

85:                                               ; preds = %52
  %86 = load i32, ptr %13, align 4
  %87 = load ptr, ptr %12, align 8
  %88 = sext i32 %86 to i64
  %89 = getelementptr inbounds i8, ptr %87, i64 %88
  store ptr %89, ptr %12, align 8
  %90 = load i32, ptr %13, align 4
  %91 = sext i32 %90 to i64
  %92 = load i64, ptr %11, align 8
  %93 = sub i64 %92, %91
  store i64 %93, ptr %11, align 8
  %94 = load i64, ptr %11, align 8
  %95 = icmp ugt i64 %94, 0
  br i1 %95, label %96, label %112

96:                                               ; preds = %85
  br label %97

97:                                               ; preds = %96
  br label %98

98:                                               ; preds = %97
  %99 = call i32 @get_log_level()
  %100 = icmp sge i32 %99, 7
  br i1 %100, label %101, label %107

101:                                              ; preds = %98
  %102 = load i64, ptr %11, align 8
  %103 = load ptr, ptr %2, align 8
  %104 = load ptr, ptr %103, align 8
  %105 = call i64 @strlen(ptr noundef %104) #14
  %106 = trunc i64 %105 to i32
  call void (i32, ptr, ...) @log_var(i32 noundef 7, ptr noundef @.str.33, ptr noundef @.str.9, i32 noundef 271, ptr noundef @__func__._edit_crontab, i64 noundef %102, i32 noundef %106)
  br label %107

107:                                              ; preds = %101, %98
  br label %108

108:                                              ; preds = %107
  br label %109

109:                                              ; preds = %108
  br label %110

110:                                              ; preds = %109
  br label %111

111:                                              ; preds = %110
  br label %112

112:                                              ; preds = %111, %85
  br label %113

113:                                              ; preds = %112
  br label %49, !llvm.loop !20

114:                                              ; preds = %49
  store i32 0, ptr %14, align 4
  br label %115

115:                                              ; preds = %84, %114
  call void @llvm.lifetime.end.p0(i64 4, ptr %13) #11
  call void @llvm.lifetime.end.p0(i64 8, ptr %12) #11
  call void @llvm.lifetime.end.p0(i64 8, ptr %11) #11
  %116 = load i32, ptr %14, align 4
  switch i32 %116, label %199 [
    i32 0, label %117
    i32 12, label %189
  ]

117:                                              ; preds = %115
  br label %118

118:                                              ; preds = %117
  br label %119

119:                                              ; preds = %118
  %120 = load i32, ptr %3, align 4
  %121 = call i32 @close(i32 noundef %120)
  %122 = load ptr, ptr %2, align 8
  call void @slurm_xfree(ptr noundef %122)
  %123 = call ptr @getenv(ptr noundef @.str.34) #11
  store ptr %123, ptr %7, align 8
  %124 = icmp ne ptr %123, null
  br i1 %124, label %125, label %131

125:                                              ; preds = %119
  %126 = load ptr, ptr %7, align 8
  %127 = getelementptr inbounds i8, ptr %126, i64 0
  %128 = load i8, ptr %127, align 1
  %129 = sext i8 %128 to i32
  %130 = icmp eq i32 %129, 0
  br i1 %130, label %131, label %142

131:                                              ; preds = %125, %119
  %132 = call ptr @getenv(ptr noundef @.str.35) #11
  store ptr %132, ptr %7, align 8
  %133 = icmp ne ptr %132, null
  br i1 %133, label %134, label %140

134:                                              ; preds = %131
  %135 = load ptr, ptr %7, align 8
  %136 = getelementptr inbounds i8, ptr %135, i64 0
  %137 = load i8, ptr %136, align 1
  %138 = sext i8 %137 to i32
  %139 = icmp eq i32 %138, 0
  br i1 %139, label %140, label %141

140:                                              ; preds = %134, %131
  store ptr @.str.36, ptr %7, align 8
  br label %141

141:                                              ; preds = %140, %134
  br label %142

142:                                              ; preds = %141, %125
  %143 = call i32 @fork() #11
  store i32 %143, ptr %6, align 4
  %144 = icmp eq i32 %143, -1
  br i1 %144, label %145, label %148

145:                                              ; preds = %142
  %146 = load ptr, ptr %8, align 8
  %147 = call i32 @unlink(ptr noundef %146) #11
  call void @slurm_xfree(ptr noundef %8)
  call void (ptr, ...) @fatal(ptr noundef @.str.37) #12
  unreachable

148:                                              ; preds = %142
  %149 = load i32, ptr %6, align 4
  %150 = icmp ne i32 %149, 0
  br i1 %150, label %160, label %151

151:                                              ; preds = %148
  call void @llvm.lifetime.start.p0(i64 24, ptr %15) #11
  %152 = load ptr, ptr %7, align 8
  %153 = getelementptr inbounds [3 x ptr], ptr %15, i64 0, i64 0
  store ptr %152, ptr %153, align 16
  %154 = load ptr, ptr %8, align 8
  %155 = getelementptr inbounds [3 x ptr], ptr %15, i64 0, i64 1
  store ptr %154, ptr %155, align 8
  %156 = getelementptr inbounds [3 x ptr], ptr %15, i64 0, i64 2
  store ptr null, ptr %156, align 16
  %157 = load ptr, ptr %7, align 8
  %158 = getelementptr inbounds [3 x ptr], ptr %15, i64 0, i64 0
  %159 = call i32 @execvp(ptr noundef %157, ptr noundef %158) #11
  call void @exit(i32 noundef 127) #13
  unreachable

160:                                              ; preds = %148
  %161 = load i32, ptr %6, align 4
  %162 = call i32 @waitpid(i32 noundef %161, ptr noundef %4, i32 noundef 0)
  %163 = load i32, ptr %4, align 4
  %164 = icmp ne i32 %163, 0
  br i1 %164, label %165, label %168

165:                                              ; preds = %160
  %166 = load ptr, ptr %8, align 8
  %167 = call i32 @unlink(ptr noundef %166) #11
  call void @slurm_xfree(ptr noundef %8)
  call void (ptr, ...) @fatal(ptr noundef @.str.38) #12
  unreachable

168:                                              ; preds = %160
  %169 = load ptr, ptr %8, align 8
  %170 = call i32 (ptr, i32, ...) @open(ptr noundef %169, i32 noundef 0)
  store i32 %170, ptr %3, align 4
  %171 = load i32, ptr %3, align 4
  %172 = icmp slt i32 %171, 0
  br i1 %172, label %173, label %181

173:                                              ; preds = %168
  %174 = call ptr @__errno_location() #15
  %175 = load i32, ptr %174, align 4
  store i32 %175, ptr %5, align 4
  %176 = load ptr, ptr %8, align 8
  %177 = call i32 @unlink(ptr noundef %176) #11
  %178 = load ptr, ptr %8, align 8
  %179 = load i32, ptr %5, align 4
  %180 = call ptr @strerror(i32 noundef %179) #11
  call void (ptr, ...) @fatal(ptr noundef @.str.39, ptr noundef %178, ptr noundef %180) #12
  unreachable

181:                                              ; preds = %168
  %182 = load i32, ptr %3, align 4
  %183 = call ptr @_load_script_from_fd(i32 noundef %182)
  %184 = load ptr, ptr %2, align 8
  store ptr %183, ptr %184, align 8
  %185 = load i32, ptr %3, align 4
  %186 = call i32 @close(i32 noundef %185)
  %187 = load ptr, ptr %8, align 8
  %188 = call i32 @unlink(ptr noundef %187) #11
  call void @slurm_xfree(ptr noundef %8)
  store i32 1, ptr %14, align 4
  br label %199

189:                                              ; preds = %115
  %190 = call ptr @__errno_location() #15
  %191 = load i32, ptr %190, align 4
  store i32 %191, ptr %5, align 4
  %192 = load i32, ptr %3, align 4
  %193 = call i32 @close(i32 noundef %192)
  %194 = load ptr, ptr %8, align 8
  %195 = call i32 @unlink(ptr noundef %194) #11
  %196 = load ptr, ptr %8, align 8
  %197 = load i32, ptr %5, align 4
  %198 = call ptr @strerror(i32 noundef %197) #11
  call void (ptr, ...) @fatal(ptr noundef @.str.40, ptr noundef %196, ptr noundef %198) #12
  unreachable

199:                                              ; preds = %181, %115
  call void @llvm.lifetime.end.p0(i64 8, ptr %8) #11
  call void @llvm.lifetime.end.p0(i64 8, ptr %7) #11
  call void @llvm.lifetime.end.p0(i64 4, ptr %6) #11
  call void @llvm.lifetime.end.p0(i64 4, ptr %5) #11
  call void @llvm.lifetime.end.p0(i64 4, ptr %4) #11
  call void @llvm.lifetime.end.p0(i64 4, ptr %3) #11
  ret void
}