; Function Attrs: nounwind uwtable
define internal fastcc void @_edit_crontab(ptr noundef nonnull %0) unnamed_addr #1 {
  %2 = alloca i32, align 4
  %3 = alloca ptr, align 8
  %4 = alloca [3 x ptr], align 16
  call void @llvm.lifetime.start.p0(i64 4, ptr nonnull %2) #16
  call void @llvm.lifetime.start.p0(i64 8, ptr nonnull %3) #16
  store ptr null, ptr %3, align 8
  %5 = load ptr, ptr %0, align 8
  %.not = icmp eq ptr %5, null
  br i1 %.not, label %6, label %9

6:                                                ; preds = %1
  %7 = tail call ptr @slurm_xcalloc(i64 noundef 1, i64 noundef add (i64 sub (i64 ptrtoint (ptr @_binary_default_crontab_txt_end to i64), i64 ptrtoint (ptr @_binary_default_crontab_txt_start to i64)), i64 1), i1 noundef zeroext true, i1 noundef zeroext false, ptr noundef nonnull @.str.9, i32 noundef 262, ptr noundef nonnull @__func__._edit_crontab) #16
  tail call void @llvm.memcpy.p0.p0.i64(ptr align 1 %7, ptr nonnull align 8 @_binary_default_crontab_txt_start, i64 sub (i64 ptrtoint (ptr @_binary_default_crontab_txt_end to i64), i64 ptrtoint (ptr @_binary_default_crontab_txt_start to i64)), i1 false)
  %8 = getelementptr inbounds nuw i8, ptr %7, i64 sub (i64 ptrtoint (ptr @_binary_default_crontab_txt_end to i64), i64 ptrtoint (ptr @_binary_default_crontab_txt_start to i64))
  store i8 0, ptr %8, align 1
  store ptr %7, ptr %0, align 8
  br label %9

9:                                                ; preds = %6, %1
  %10 = tail call ptr @getenv(ptr noundef nonnull @.str.41) #16
  %.not.i = icmp eq ptr %10, null
  %11 = select i1 %.not.i, ptr @.str.42, ptr %10
  call void (ptr, ptr, ...) @_xstrfmtcat(ptr noundef nonnull %3, ptr noundef nonnull @.str.30, ptr noundef nonnull %11) #16
  %12 = call i32 @umask(i32 noundef 63) #16
  %13 = load ptr, ptr %3, align 8
  %14 = call i32 @mkstemp(ptr noundef %13) #16
  %15 = icmp slt i32 %14, 0
  br i1 %15, label %16, label %18

16:                                               ; preds = %9
  %17 = load ptr, ptr %3, align 8
  call void (ptr, ...) @fatal(ptr noundef nonnull @.str.31, ptr noundef %17) #18
  unreachable

18:                                               ; preds = %9
  %19 = load ptr, ptr %0, align 8
  %20 = call i64 @strlen(ptr noundef nonnull dereferenceable(1) %19) #20
  %.not5169 = icmp eq i64 %20, 0
  br i1 %.not5169, label %.outer._crit_edge, label %.lr.ph.split

.lr.ph.split:                                     ; preds = %18, %.lr.ph.split.backedge
  %.040.ph72 = phi ptr [ %36, %.lr.ph.split.backedge ], [ %19, %18 ]
  %.041.ph70 = phi i64 [ %37, %.lr.ph.split.backedge ], [ %20, %18 ]
  %21 = call i64 @write(i32 noundef %14, ptr noundef %.040.ph72, i64 noundef %.041.ph70) #16
  %22 = and i64 %21, 2147483648
  %.not5267 = icmp eq i64 %22, 0
  br i1 %.not5267, label %.split.us, label %.lr.ph68

.lr.ph68:                                         ; preds = %.lr.ph.split
  %23 = tail call ptr @__errno_location() #21
  br label %24

24:                                               ; preds = %.lr.ph68, %26
  %25 = load i32, ptr %23, align 4
  switch i32 %25, label %.split62.us [
    i32 11, label %26
    i32 4, label %26
  ]

26:                                               ; preds = %24, %24
  %27 = call i64 @write(i32 noundef %14, ptr noundef %.040.ph72, i64 noundef %.041.ph70) #16
  %28 = and i64 %27, 2147483648
  %.not52 = icmp eq i64 %28, 0
  br i1 %.not52, label %.split.us, label %24

.split62.us:                                      ; preds = %24
  %29 = call i32 @get_log_level() #16
  %30 = icmp sgt i32 %29, 4
  br i1 %30, label %31, label %86

31:                                               ; preds = %.split62.us
  %32 = load ptr, ptr %0, align 8
  %33 = call i64 @strlen(ptr noundef nonnull dereferenceable(1) %32) #20
  %34 = trunc i64 %33 to i32
  call void (i32, ptr, ...) @log_var(i32 noundef 5, ptr noundef nonnull @.str.32, ptr noundef nonnull @.str.9, i32 noundef 271, ptr noundef nonnull @__func__._edit_crontab, i64 noundef %.041.ph70, i32 noundef %34) #16
  br label %86

.split.us:                                        ; preds = %26, %.lr.ph.split
  %.us-phi = phi i64 [ %21, %.lr.ph.split ], [ %27, %26 ]
  %35 = and i64 %.us-phi, 2147483647
  %36 = getelementptr inbounds nuw i8, ptr %.040.ph72, i64 %35
  %37 = sub i64 %.041.ph70, %35
  %.not53 = icmp eq i64 %37, 0
  br i1 %.not53, label %.outer._crit_edge, label %38

38:                                               ; preds = %.split.us
  %39 = call i32 @get_log_level() #16
  %40 = icmp sgt i32 %39, 6
  br i1 %40, label %41, label %.lr.ph.split.backedge

41:                                               ; preds = %38
  %42 = load ptr, ptr %0, align 8
  %43 = call i64 @strlen(ptr noundef nonnull dereferenceable(1) %42) #20
  %44 = trunc i64 %43 to i32
  call void (i32, ptr, ...) @log_var(i32 noundef 7, ptr noundef nonnull @.str.33, ptr noundef nonnull @.str.9, i32 noundef 271, ptr noundef nonnull @__func__._edit_crontab, i64 noundef %37, i32 noundef %44) #16
  br label %.lr.ph.split.backedge

.lr.ph.split.backedge:                            ; preds = %41, %38
  br label %.lr.ph.split, !llvm.loop !18

.outer._crit_edge:                                ; preds = %.split.us, %18
  %45 = call i32 @close(i32 noundef %14) #16
  call void @slurm_xfree(ptr noundef nonnull %0) #16
  %46 = call ptr @getenv(ptr noundef nonnull @.str.34) #16
  %.not54 = icmp eq ptr %46, null
  br i1 %.not54, label %50, label %47

47:                                               ; preds = %.outer._crit_edge
  %48 = load i8, ptr %46, align 1
  %49 = icmp eq i8 %48, 0
  br i1 %49, label %50, label %56

50:                                               ; preds = %47, %.outer._crit_edge
  %51 = call ptr @getenv(ptr noundef nonnull @.str.35) #16
  %.not55 = icmp eq ptr %51, null
  br i1 %.not55, label %55, label %52

52:                                               ; preds = %50
  %53 = load i8, ptr %51, align 1
  %54 = icmp eq i8 %53, 0
  br i1 %54, label %55, label %56

55:                                               ; preds = %52, %50
  br label %56

56:                                               ; preds = %52, %55, %47
  %.042 = phi ptr [ @.str.36, %55 ], [ %51, %52 ], [ %46, %47 ]
  %57 = call i32 @fork() #16
  switch i32 %57, label %66 [
    i32 -1, label %58
    i32 0, label %61
  ]

58:                                               ; preds = %56
  %59 = load ptr, ptr %3, align 8
  %60 = call i32 @unlink(ptr noundef %59) #16
  call void @slurm_xfree(ptr noundef nonnull %3) #16
  call void (ptr, ...) @fatal(ptr noundef nonnull @.str.37) #18
  unreachable

61:                                               ; preds = %56
  call void @llvm.lifetime.start.p0(i64 24, ptr nonnull %4) #16
  store ptr %.042, ptr %4, align 16
  %62 = load ptr, ptr %3, align 8
  %63 = getelementptr inbounds nuw i8, ptr %4, i64 8
  store ptr %62, ptr %63, align 8
  %64 = getelementptr inbounds nuw i8, ptr %4, i64 16
  store ptr null, ptr %64, align 16
  %65 = call i32 @execvp(ptr noundef nonnull %.042, ptr noundef nonnull %4) #16
  call void @exit(i32 noundef 127) #19
  unreachable

66:                                               ; preds = %56
  %67 = call i32 @waitpid(i32 noundef %57, ptr noundef nonnull %2, i32 noundef 0) #16
  %68 = load i32, ptr %2, align 4
  %.not57 = icmp eq i32 %68, 0
  %69 = load ptr, ptr %3, align 8
  br i1 %.not57, label %72, label %70

70:                                               ; preds = %66
  %71 = call i32 @unlink(ptr noundef %69) #16
  call void @slurm_xfree(ptr noundef nonnull %3) #16
  call void (ptr, ...) @fatal(ptr noundef nonnull @.str.38) #18
  unreachable

72:                                               ; preds = %66
  %73 = call i32 (ptr, i32, ...) @open(ptr noundef %69, i32 noundef 0) #16
  %74 = icmp slt i32 %73, 0
  br i1 %74, label %75, label %82

75:                                               ; preds = %72
  %76 = tail call ptr @__errno_location() #21
  %77 = load i32, ptr %76, align 4
  %78 = load ptr, ptr %3, align 8
  %79 = call i32 @unlink(ptr noundef %78) #16
  %80 = load ptr, ptr %3, align 8
  %81 = call ptr @strerror(i32 noundef %77) #16
  call void (ptr, ...) @fatal(ptr noundef nonnull @.str.39, ptr noundef %80, ptr noundef %81) #18
  unreachable

82:                                               ; preds = %72
  %83 = call i64 @lseek(i32 noundef range(i32 0, -2147483648) %73, i64 noundef 0, i32 noundef 0) #16
  %84 = icmp slt i64 %83, 0
  br i1 %84, label %85, label %94

85:                                               ; preds = %82
  call void (ptr, ...) @fatal(ptr noundef nonnull @.str.43, ptr noundef nonnull @__func__._load_script_from_fd) #18
  unreachable

86:                                               ; preds = %31, %.split62.us
  %87 = tail call ptr @__errno_location() #21
  %88 = load i32, ptr %87, align 4
  %89 = call i32 @close(i32 noundef %14) #16
  %90 = load ptr, ptr %3, align 8
  %91 = call i32 @unlink(ptr noundef %90) #16
  %92 = load ptr, ptr %3, align 8
  %93 = call ptr @strerror(i32 noundef %88) #16
  call void (ptr, ...) @fatal(ptr noundef nonnull @.str.40, ptr noundef %92, ptr noundef %93) #18
  unreachable

94:                                               ; preds = %82
  %95 = call fastcc ptr @_read_fd(i32 noundef range(i32 0, -2147483648) %73)
  store ptr %95, ptr %0, align 8
  %96 = call i32 @close(i32 noundef %73) #16
  %97 = load ptr, ptr %3, align 8
  %98 = call i32 @unlink(ptr noundef %97) #16
  call void @slurm_xfree(ptr noundef nonnull %3) #16
  call void @llvm.lifetime.end.p0(i64 8, ptr nonnull %3) #16
  call void @llvm.lifetime.end.p0(i64 4, ptr nonnull %2) #16
  ret void
}